; Function Attrs: mustprogress ssp uwtable
define noundef i64 @_ZNK6open3d4core7HashMap14GetBucketCountEv(ptr noundef nonnull readonly align 8 captures(none) dereferenceable(152) %0) local_unnamed_addr #2 align 2 {
  %2 = getelementptr inbounds nuw i8, ptr %0, i64 8
  %3 = load ptr, ptr %2, align 8, !tbaa !32
  %4 = load ptr, ptr %3, align 8, !tbaa !4
  %5 = getelementptr inbounds nuw i8, ptr %4, i64 72
  %6 = load ptr, ptr %5, align 8
  %7 = tail call noundef i64 %6(ptr noundef nonnull align 8 dereferenceable(72) %3)
  ret i64 %7
}